(dp1
S'sort_id'
p2
NsS'sort_order'
p3
NsS'columns'
p4
(dp5
S'Priorytet'
p6
(dp7
S'position'
p8
I3
sS'width'
p9
I2638
ssS'Nazwa pliku'
p10
(dp11
g8
I0
sg9
I215
ssS'Post\xc4\x99p'
p12
(dp13
g8
I2
sg9
I128
ssS'Rozmiar'
p14
(dp15
g8
I1
sg9
I149
sss.