(dp1
S'sort_id'
p2
NsS'sort_order'
p3
NsS'columns'
p4
(dp5
S'Szybk. wysy\xc5\x82ania'
p6
(dp7
S'position'
p8
I5
sS'width'
p9
I2451
ssN(dp10
g8
I0
sg9
I20
ssS'Adres'
p11
(dp12
g8
I1
sg9
I109
ssS'Szybk. pobierania'
p13
(dp14
g8
I4
sg9
I310
ssS'Klient'
p15
(dp16
g8
I2
sg9
I112
ssS'Post\xc4\x99p'
p17
(dp18
g8
I3
sg9
I128
sss.